Crasm LYB 1.3:                                                   page  1

                         1  ;    Routines to allow direct USB-to-LCD-transfe
rs in an ST220x-device
                         2  ;    Copyright (C) 2008 Jeroen Domburg <jeroen@s
pritesmods.com>
                         3  ;
                         4  ;    This program is free software: you can redi
stribute it and/or modify
                         5  ;    it under the terms of the GNU General Publi
c License as published by
                         6  ;    the Free Software Foundation, either versio
n 3 of the License, or
                         7  ;    (at your option) any later version.
                         8  ;
                         9  ;    This program is distributed in the hope tha
t it will be useful,
                        10  ;    but WITHOUT ANY WARRANTY; without even the 
implied warranty of
                        11  ;    MERCHANTABILITY or FITNESS FOR A PARTICULAR
PURPOSE.  See the
                        12  ;    GNU General Public License for more details
.
                        13  ;
                        14  ;    You should have received a copy of the GNU 
General Public License
                        15  ;    along with this program.  If not, see <http
://www.gnu.org/licenses/>.
                        16  
                        17  
                        18      CPU 65c02
                        19      OUTPUT HEX
                        20      INCLUDE spec
  7A00                  21      * = EMPTY_AT+$4000
                        22  
                        23  ;The routine in the existing firmware is patched
to jump here if the
                        24  ;routine that discerns the address that's writte
n to fails.
                        25  ;This way, we can splice our own check inthere t
oo.
                        26  
                        27  ;Watch out & be carefull with bloating this: one
of the devices (the Coby)
                        28  ;only has 230 bytes free to cram this in!
                        29  
                        30  ;check magic write to address 4400
7A00 AD8803             31  start   lda CMP_VAR1
7A03 C922               32          cmp #$22
7A05 D009               33          bne nomagic
7A07 AD8903             34          lda CMP_VAR2
7A0A C900               35          cmp #$00
7A0C D002               36          bne nomagic
7A0E 8007               37          bra gotcha
                        38  ;Nope? Do what the original routine did & bail o
ut.
7A10 A9FF               39  nomagic lda #$ff
7A12 A2FF               40          ldx #$ff
7A14 4CE16D             41          jmp PATCH_AT+$4004
                        42  
                        43  ;ack usb wossname
7A17 A904               44  gotcha  lda #$04
7A19 8573               45          sta $73
                        46  


Crasm LYB 1.3:                                                   page  2

                        47  ;Push registers 
7A1B A535               48          lda $35
7A1D 48                 49          pha
                        50  
                        51  ;select lcd
7A1E A903               52          lda #$3
7A20 8535               53          sta $35
                        54  
7A22 9C7A03             55          stz LEN0
                        56  ;wait for usb packet
7A25 A573               57  waitpacket lda $73
7A27 2904               58          and #$4
7A29 F0FA               59          beq waitpacket
                        60  
                        61  ;fetch command
7A2B AD0002             62          lda $200
7A2E C900               63          cmp #$0
7A30 F047               64          beq copy2fb
7A32 C901               65          cmp #$1
7A34 F01A               66          beq setaddr
7A36 C902               67          cmp #$2
7A38 F006               68          beq blon
7A3A C903               69          cmp #$3
7A3C F00A               70          beq bloff
7A3E 804F               71          bra packetend
                        72  
                        73  ;Command 2: turn backlight on
7A40 A503               74  blon    lda $03
>>>> 75 WARNING: External parenthesis ignored
7A42 29FB               75          and #($ff-$04)
7A44 8503               76          sta $03
7A46 8047               77          bra packetend
                        78  
                        79  ;Command 3: turn backlight off
7A48 A503               80  bloff   lda $03
7A4A 0904               81          ora #$04
7A4C 8503               82          sta $03
7A4E 803F               83          bra packetend
                        84  
                        85  
                        86  ;Command 1: set window to write data to
                        87  IF CTRTYPE=1 ;UC1697V
                         C  ;set visible window
                         C  ;Non-working as of yet :/
                         C  setaddr lda #$F6 ;endx
                         C          sta $8000
                         C          lda $202
                         C          sta $8000
                         C  
                         C          lda #$F7 ;endy
                         C          sta $8000
                         C          lda $204
                         C          sta $8000
                         C  
                         C          lda #$F4 ;startx
                         C          sta $8000
                         C          lda $201
                         C          sta $8000
                         C  
                         C          lda #$F5 ;starty
                         C          sta $8000
                         C          lda $203


Crasm LYB 1.3:                                                   page  3

                         C          sta $8000
                         C  
                         C  ;reset addr to (0,0)
                         C  ;       lda #$00
                         C  ;       sta $8000
                         C  ;       lda #$10
                         C  ;       sta $8000
                         C  ;       lda #$60
                         C  ;       sta $8000
                         C  ;       lda #$70
                         C  ;       sta $8000
                         C  
                         C          bra packetend
                       121  ENDC
                       122  IF CTRTYPE==0 ;PCF8833
                       123  ;set addr
7A50 A92A              124  setaddr lda #$2A
7A52 8D0080            125          sta $8000
7A55 AD0102            126          lda $201
7A58 8D00C0            127          sta $c000
7A5B AD0202            128          lda $202
7A5E 8D00C0            129          sta $c000
                       130  
7A61 A92B              131          lda #$2B
7A63 8D0080            132          sta $8000
7A66 AD0302            133          lda $203
7A69 8D00C0            134          sta $c000
7A6C AD0402            135          lda $204
7A6F 8D00C0            136          sta $c000
                       137  
7A72 A92C              138          lda #$2c
7A74 8D0080            139          sta $8000
                       140  
7A77 8016              141          bra packetend
                       142  ENDC
                       143  
                       144  
                       145  ;Command 0: dma data to lcd.
                       146          ;set dma regs
                       147          ;copy from ($202)
7A79 A902              148  copy2fb lda #$2
7A7B 8558              149          sta $58
7A7D 8559              150          sta $59
                       151          ;from bank (=0)
7A7F 645E              152          stz $5e
7A81 645F              153          stz $5f
                       154          ;to (0xc0xx)
7A83 A9C0              155          lda #$C0
7A85 855B              156          sta $5b
                       157  ;       stz $5a ;unnecessary
                       158          ;count
7A87 645D              159          stz $5D
7A89 AD0102            160          lda $201
                       161  ;       dea ;dma sends this +1 over; compensate
                       162          ;^^ stupid crasm doesn't recognize this 
:X
7A8C 3A                163          db $3a ;=hardcoded 'dea'
7A8D 855C              164          sta $5C
                       165  
                       166  
                       167  ;subtract 0x40 from 37A:37D.
                       168  ;Damn, this is way easier on an ARM :P


Crasm LYB 1.3:                                                   page  4

7A8F 38                169  packetend sec
7A90 AD7A03            170          lda LEN0
7A93 E940              171          sbc #$40
7A95 8D7A03            172          sta LEN0
7A98 AD7B03            173          lda LEN1
7A9B E900              174          sbc #$0
7A9D 8D7B03            175          sta LEN1
7AA0 AD7C03            176          lda LEN2
7AA3 E900              177          sbc #$0
7AA5 8D7C03            178          sta LEN2
                       179  ;never gonna do such large xfers anyway
                       180  ;       lda LEN3
                       181  ;       sbc #$0
                       182  ;       sta LEN3
                       183  
                       184  ;ack
7AA8 A904              185          lda #$04
7AAA 8573              186          sta $73
                       187  
                       188  ;check for done-ness
                       189  ;       lda LEN3
7AAC AD7C03            190          lda LEN2
7AAF 0D7B03            191          ora LEN1
7AB2 0D7A03            192          ora LEN0
7AB5 F003              193          beq nowaitpacket
7AB7 4C257A            194          jmp waitpacket
                       195  
                       196  ;restore registers
7ABA 68                197  nowaitpacket    pla
7ABB 8535              198          sta $35
                       199  
                       200  
                       201  ;send ack
7ABD A900              202          lda #$00
7ABF 20A56C            203          jsr SEND_CSW+0x4000
                       204  
                       205  ;and return as a winner :)
7AC2 A9FF              206          lda #$ff
7AC4 A2FF              207          ldx #$ff
7AC6 4CE16D            208          jmp PATCH_AT+$4004
                       209  
                       210  
7AC9 4834434B          211          db "H","4","C","K"
7ACD 01                212          db 1 ;version of info block
7ACE 80                213          db CONF_XRES
7ACF 80                214          db CONF_YRES
7AD0 10                215          db CONF_BPP
7AD1 00                216          db CONF_PROTO
7AD2 04                217          db OFFX
7AD3 04                218          db OFFY
                       219  

ERRORS:       0
WARNINGS:     0

Successful assembly...
 Last address     7ad3 (31443)
 Code length       1a8 (424)






Crasm LYB 1.3:                                                   page  5

^7A48   Abs BLOFF                                            
^7A40   Abs BLON                                             
 0388   Abs CMP_VAR1                                         
 0389   Abs CMP_VAR2                                         
 0010   Abs CONF_BPP                                         
 0000   Abs CONF_PROTO                                       
 0080   Abs CONF_XRES                                        
 0080   Abs CONF_YRES                                        
^7A79   Abs COPY2FB                                          
 0000   Abs CTRTYPE                                          
 3A00   Abs EMPTY_AT                                         
^7A17   Abs GOTCHA                                           
 037A   Abs LEN0                                             
 037B   Abs LEN1                                             
 037C   Abs LEN2                                             
?037D   Abs LEN3                                             
^7A10   Abs NOMAGIC                                          
^7ABA   Abs NOWAITPACKET                                     
 0004   Abs OFFX                                             
 0004   Abs OFFY                                             
^7A8F   Abs PACKETEND                                        
 2DDD   Abs PATCH_AT                                         
 2CA5   Abs SEND_CSW                                         
^7A50   Abs SETADDR                                          
?7A00   Abs START                                            
 7A25   Abs WAITPACKET                                       






































