Crasm LYB 1.3:                                                   page  1

                         1  ;    Routines to allow direct USB-to-LCD-transfe
rs in an ST220x-device
                         2  ;    Copyright (C) 2008 Jeroen Domburg <jeroen@s
pritesmods.com>
                         3  ;
                         4  ;    This program is free software: you can redi
stribute it and/or modify
                         5  ;    it under the terms of the GNU General Publi
c License as published by
                         6  ;    the Free Software Foundation, either versio
n 3 of the License, or
                         7  ;    (at your option) any later version.
                         8  ;
                         9  ;    This program is distributed in the hope tha
t it will be useful,
                        10  ;    but WITHOUT ANY WARRANTY; without even the 
implied warranty of
                        11  ;    MERCHANTABILITY or FITNESS FOR A PARTICULAR
PURPOSE.  See the
                        12  ;    GNU General Public License for more details
.
                        13  ;
                        14  ;    You should have received a copy of the GNU 
General Public License
                        15  ;    along with this program.  If not, see <http
://www.gnu.org/licenses/>.
                        16  
                        17  
                        18      CPU 65c02
                        19      OUTPUT HEX
                        20      INCLUDE spec
  78E0                  21      * = EMPTY_AT+$4000
                        22  
                        23  ;The routine in the existing firmware is patched
to jump here if the
                        24  ;routine that discerns the address that's writte
n to fails.
                        25  ;This way, we can splice our own check inthere t
oo.
                        26  
                        27  ;Watch out & be carefull with bloating this: one
of the devices (the Coby)
                        28  ;only has 230 bytes free to cram this in!
                        29  
                        30  ;check magic write to address 4400
78E0 AD8803             31  start   lda CMP_VAR1
78E3 C922               32          cmp #$22
78E5 D009               33          bne nomagic
78E7 AD8903             34          lda CMP_VAR2
78EA C900               35          cmp #$00
78EC D002               36          bne nomagic
78EE 8007               37          bra gotcha
                        38  ;Nope? Do what the original routine did & bail o
ut.
78F0 A9FF               39  nomagic lda #$ff
78F2 A2FF               40          ldx #$ff
78F4 4C336C             41          jmp PATCH_AT+$4004
                        42  
                        43  ;ack usb wossname
78F7 A904               44  gotcha  lda #$04
78F9 8573               45          sta $73
                        46  


Crasm LYB 1.3:                                                   page  2

                        47  ;Push registers 
78FB A535               48          lda $35
78FD 48                 49          pha
                        50  
                        51  ;select lcd
78FE A903               52          lda #$3
7900 8535               53          sta $35
                        54  
7902 9C7A03             55          stz LEN0
                        56  ;wait for usb packet
7905 A573               57  waitpacket lda $73
7907 2904               58          and #$4
7909 F0FA               59          beq waitpacket
                        60  
                        61  ;fetch command
790B AD0002             62          lda $200
790E C900               63          cmp #$0
7910 F047               64          beq copy2fb
7912 C901               65          cmp #$1
7914 F01A               66          beq setaddr
7916 C902               67          cmp #$2
7918 F006               68          beq blon
791A C903               69          cmp #$3
791C F00A               70          beq bloff
791E 804F               71          bra packetend
                        72  
                        73  ;Command 2: turn backlight on
7920 A503               74  blon    lda $03
>>>> 75 WARNING: External parenthesis ignored
7922 29FB               75          and #($ff-$04)
7924 8503               76          sta $03
7926 8047               77          bra packetend
                        78  
                        79  ;Command 3: turn backlight off
7928 A503               80  bloff   lda $03
792A 0904               81          ora #$04
792C 8503               82          sta $03
792E 803F               83          bra packetend
                        84  
                        85  
                        86  ;Command 1: set window to write data to
                        87  IF CTRTYPE=1 ;UC1697V
                         C  ;set visible window
                         C  ;Non-working as of yet :/
                         C  setaddr lda #$F6 ;endx
                         C          sta $8000
                         C          lda $202
                         C          sta $8000
                         C  
                         C          lda #$F7 ;endy
                         C          sta $8000
                         C          lda $204
                         C          sta $8000
                         C  
                         C          lda #$F4 ;startx
                         C          sta $8000
                         C          lda $201
                         C          sta $8000
                         C  
                         C          lda #$F5 ;starty
                         C          sta $8000
                         C          lda $203


Crasm LYB 1.3:                                                   page  3

                         C          sta $8000
                         C  
                         C  ;reset addr to (0,0)
                         C  ;       lda #$00
                         C  ;       sta $8000
                         C  ;       lda #$10
                         C  ;       sta $8000
                         C  ;       lda #$60
                         C  ;       sta $8000
                         C  ;       lda #$70
                         C  ;       sta $8000
                         C  
                         C          bra packetend
                       121  ENDC
                       122  IF CTRTYPE==0 ;PCF8833
                       123  ;set addr
7930 A92A              124  setaddr lda #$2A
7932 8D0080            125          sta $8000
7935 AD0102            126          lda $201
7938 8D00C0            127          sta $c000
793B AD0202            128          lda $202
793E 8D00C0            129          sta $c000
                       130  
7941 A92B              131          lda #$2B
7943 8D0080            132          sta $8000
7946 AD0302            133          lda $203
7949 8D00C0            134          sta $c000
794C AD0402            135          lda $204
794F 8D00C0            136          sta $c000
                       137  
7952 A92C              138          lda #$2c
7954 8D0080            139          sta $8000
                       140  
7957 8016              141          bra packetend
                       142  ENDC
                       143  
                       144  
                       145  ;Command 0: dma data to lcd.
                       146          ;set dma regs
                       147          ;copy from ($202)
7959 A902              148  copy2fb lda #$2
795B 8558              149          sta $58
795D 8559              150          sta $59
                       151          ;from bank (=0)
795F 645E              152          stz $5e
7961 645F              153          stz $5f
                       154          ;to (0xc0xx)
7963 A9C0              155          lda #$C0
7965 855B              156          sta $5b
                       157  ;       stz $5a ;unnecessary
                       158          ;count
7967 645D              159          stz $5D
7969 AD0102            160          lda $201
                       161  ;       dea ;dma sends this +1 over; compensate
                       162          ;^^ stupid crasm doesn't recognize this 
:X
796C 3A                163          db $3a ;=hardcoded 'dea'
796D 855C              164          sta $5C
                       165  
                       166  
                       167  ;subtract 0x40 from 37A:37D.
                       168  ;Damn, this is way easier on an ARM :P


Crasm LYB 1.3:                                                   page  4

796F 38                169  packetend sec
7970 AD7A03            170          lda LEN0
7973 E940              171          sbc #$40
7975 8D7A03            172          sta LEN0
7978 AD7B03            173          lda LEN1
797B E900              174          sbc #$0
797D 8D7B03            175          sta LEN1
7980 AD8C03            176          lda LEN2
7983 E900              177          sbc #$0
7985 8D8C03            178          sta LEN2
                       179  ;never gonna do such large xfers anyway
                       180  ;       lda LEN3
                       181  ;       sbc #$0
                       182  ;       sta LEN3
                       183  
                       184  ;ack
7988 A904              185          lda #$04
798A 8573              186          sta $73
                       187  
                       188  ;check for done-ness
                       189  ;       lda LEN3
798C AD8C03            190          lda LEN2
798F 0D7B03            191          ora LEN1
7992 0D7A03            192          ora LEN0
7995 F003              193          beq nowaitpacket
7997 4C0579            194          jmp waitpacket
                       195  
                       196  ;restore registers
799A 68                197  nowaitpacket    pla
799B 8535              198          sta $35
                       199  
                       200  
                       201  ;send ack
799D A900              202          lda #$00
799F 20F76A            203          jsr SEND_CSW+0x4000
                       204  
                       205  ;and return as a winner :)
79A2 A9FF              206          lda #$ff
79A4 A2FF              207          ldx #$ff
79A6 4C336C            208          jmp PATCH_AT+$4004
                       209  
                       210  
79A9 4834434B          211          db "H","4","C","K"
79AD 01                212          db 1 ;version of info block
79AE 80                213          db CONF_XRES
79AF 80                214          db CONF_YRES
79B0 10                215          db CONF_BPP
79B1 00                216          db CONF_PROTO
79B2 04                217          db OFFX
79B3 00                218          db OFFY
                       219  

ERRORS:       0
WARNINGS:     0

Successful assembly...
 Last address     79b3 (31155)
 Code length       1a8 (424)






Crasm LYB 1.3:                                                   page  5

^7928   Abs BLOFF                                            
^7920   Abs BLON                                             
 0388   Abs CMP_VAR1                                         
 0389   Abs CMP_VAR2                                         
 0010   Abs CONF_BPP                                         
 0000   Abs CONF_PROTO                                       
 0080   Abs CONF_XRES                                        
 0080   Abs CONF_YRES                                        
^7959   Abs COPY2FB                                          
 0000   Abs CTRTYPE                                          
 38E0   Abs EMPTY_AT                                         
^78F7   Abs GOTCHA                                           
 037A   Abs LEN0                                             
 037B   Abs LEN1                                             
 038C   Abs LEN2                                             
?038D   Abs LEN3                                             
^78F0   Abs NOMAGIC                                          
^799A   Abs NOWAITPACKET                                     
 0004   Abs OFFX                                             
 0000   Abs OFFY                                             
^796F   Abs PACKETEND                                        
 2C2F   Abs PATCH_AT                                         
 2AF7   Abs SEND_CSW                                         
^7930   Abs SETADDR                                          
?78E0   Abs START                                            
 7905   Abs WAITPACKET                                       






































