Crasm LYB 1.3:                                                   page  1

                         1  ;    Routines to allow direct USB-to-LCD-transfe
rs in an ST220x-device
                         2  ;    Copyright (C) 2008 Jeroen Domburg <jeroen@s
pritesmods.com>
                         3  ;
                         4  ;    This program is free software: you can redi
stribute it and/or modify
                         5  ;    it under the terms of the GNU General Publi
c License as published by
                         6  ;    the Free Software Foundation, either versio
n 3 of the License, or
                         7  ;    (at your option) any later version.
                         8  ;
                         9  ;    This program is distributed in the hope tha
t it will be useful,
                        10  ;    but WITHOUT ANY WARRANTY; without even the 
implied warranty of
                        11  ;    MERCHANTABILITY or FITNESS FOR A PARTICULAR
PURPOSE.  See the
                        12  ;    GNU General Public License for more details
.
                        13  ;
                        14  ;    You should have received a copy of the GNU 
General Public License
                        15  ;    along with this program.  If not, see <http
://www.gnu.org/licenses/>.
                        16  
                        17  
                        18      CPU 65c02
                        19      OUTPUT HEX
                        20      INCLUDE spec
  7CC0                  21      * = EMPTY_AT+$4000
                        22  
                        23  ;The routine in the existing firmware is patched
to jump here if the
                        24  ;routine that discerns the address that's writte
n to fails.
                        25  ;This way, we can splice our own check inthere t
oo.
                        26  
                        27  ;Watch out & be carefull with bloating this: one
of the devices (the Coby)
                        28  ;only has 230 bytes free to cram this in!
                        29  
                        30  ;check magic write to address 4400
7CC0 AD7C03             31  start   lda CMP_VAR1
7CC3 C922               32          cmp #$22
7CC5 D009               33          bne nomagic
7CC7 AD7D03             34          lda CMP_VAR2
7CCA C900               35          cmp #$00
7CCC D002               36          bne nomagic
7CCE 8007               37          bra gotcha
                        38  ;Nope? Do what the original routine did & bail o
ut.
7CD0 A9FF               39  nomagic lda #$ff
7CD2 A2FF               40          ldx #$ff
7CD4 4CBB71             41          jmp PATCH_AT+$4004
                        42  
                        43  ;ack usb wossname
7CD7 A904               44  gotcha  lda #$04
7CD9 8573               45          sta $73
                        46  


Crasm LYB 1.3:                                                   page  2

                        47  ;Push registers 
7CDB A535               48          lda $35
7CDD 48                 49          pha
                        50  
                        51  ;select lcd
7CDE A903               52          lda #$3
7CE0 8535               53          sta $35
                        54  
7CE2 9C6E03             55          stz LEN0
                        56  ;wait for usb packet
7CE5 A573               57  waitpacket lda $73
7CE7 2904               58          and #$4
7CE9 F0FA               59          beq waitpacket
                        60  
                        61  ;fetch command
7CEB AD0002             62          lda $200
7CEE C900               63          cmp #$0
7CF0 F047               64          beq copy2fb
7CF2 C901               65          cmp #$1
7CF4 F01A               66          beq setaddr
7CF6 C902               67          cmp #$2
7CF8 F006               68          beq blon
7CFA C903               69          cmp #$3
7CFC F00A               70          beq bloff
7CFE 804F               71          bra packetend
                        72  
                        73  ;Command 2: turn backlight on
7D00 A503               74  blon    lda $03
>>>> 75 WARNING: External parenthesis ignored
7D02 29FB               75          and #($ff-$04)
7D04 8503               76          sta $03
7D06 8047               77          bra packetend
                        78  
                        79  ;Command 3: turn backlight off
7D08 A503               80  bloff   lda $03
7D0A 0904               81          ora #$04
7D0C 8503               82          sta $03
7D0E 803F               83          bra packetend
                        84  
                        85  
                        86  ;Command 1: set window to write data to
                        87  IF CTRTYPE=1 ;UC1697V
                         C  ;set visible window
                         C  ;Non-working as of yet :/
                         C  setaddr lda #$F6 ;endx
                         C          sta $8000
                         C          lda $202
                         C          sta $8000
                         C  
                         C          lda #$F7 ;endy
                         C          sta $8000
                         C          lda $204
                         C          sta $8000
                         C  
                         C          lda #$F4 ;startx
                         C          sta $8000
                         C          lda $201
                         C          sta $8000
                         C  
                         C          lda #$F5 ;starty
                         C          sta $8000
                         C          lda $203


Crasm LYB 1.3:                                                   page  3

                         C          sta $8000
                         C  
                         C  ;reset addr to (0,0)
                         C  ;       lda #$00
                         C  ;       sta $8000
                         C  ;       lda #$10
                         C  ;       sta $8000
                         C  ;       lda #$60
                         C  ;       sta $8000
                         C  ;       lda #$70
                         C  ;       sta $8000
                         C  
                         C          bra packetend
                       121  ENDC
                       122  IF CTRTYPE==0 ;PCF8833
                       123  ;set addr
7D10 A92A              124  setaddr lda #$2A
7D12 8D0080            125          sta $8000
7D15 AD0102            126          lda $201
7D18 8D00C0            127          sta $c000
7D1B AD0202            128          lda $202
7D1E 8D00C0            129          sta $c000
                       130  
7D21 A92B              131          lda #$2B
7D23 8D0080            132          sta $8000
7D26 AD0302            133          lda $203
7D29 8D00C0            134          sta $c000
7D2C AD0402            135          lda $204
7D2F 8D00C0            136          sta $c000
                       137  
7D32 A92C              138          lda #$2c
7D34 8D0080            139          sta $8000
                       140  
7D37 8016              141          bra packetend
                       142  ENDC
                       143  
                       144  
                       145  ;Command 0: dma data to lcd.
                       146          ;set dma regs
                       147          ;copy from ($202)
7D39 A902              148  copy2fb lda #$2
7D3B 8558              149          sta $58
7D3D 8559              150          sta $59
                       151          ;from bank (=0)
7D3F 645E              152          stz $5e
7D41 645F              153          stz $5f
                       154          ;to (0xc0xx)
7D43 A9C0              155          lda #$C0
7D45 855B              156          sta $5b
                       157  ;       stz $5a ;unnecessary
                       158          ;count
7D47 645D              159          stz $5D
7D49 AD0102            160          lda $201
                       161  ;       dea ;dma sends this +1 over; compensate
                       162          ;^^ stupid crasm doesn't recognize this 
:X
7D4C 3A                163          db $3a ;=hardcoded 'dea'
7D4D 855C              164          sta $5C
                       165  
                       166  
                       167  ;subtract 0x40 from 37A:37D.
                       168  ;Damn, this is way easier on an ARM :P


Crasm LYB 1.3:                                                   page  4

7D4F 38                169  packetend sec
7D50 AD6E03            170          lda LEN0
7D53 E940              171          sbc #$40
7D55 8D6E03            172          sta LEN0
7D58 AD6F03            173          lda LEN1
7D5B E900              174          sbc #$0
7D5D 8D6F03            175          sta LEN1
7D60 AD7003            176          lda LEN2
7D63 E900              177          sbc #$0
7D65 8D7003            178          sta LEN2
                       179  ;never gonna do such large xfers anyway
                       180  ;       lda LEN3
                       181  ;       sbc #$0
                       182  ;       sta LEN3
                       183  
                       184  ;ack
7D68 A904              185          lda #$04
7D6A 8573              186          sta $73
                       187  
                       188  ;check for done-ness
                       189  ;       lda LEN3
7D6C AD7003            190          lda LEN2
7D6F 0D6F03            191          ora LEN1
7D72 0D6E03            192          ora LEN0
7D75 F003              193          beq nowaitpacket
7D77 4CE57C            194          jmp waitpacket
                       195  
                       196  ;restore registers
7D7A 68                197  nowaitpacket    pla
7D7B 8535              198          sta $35
                       199  
                       200  
                       201  ;send ack
7D7D A900              202          lda #$00
7D7F 207F70            203          jsr SEND_CSW+0x4000
                       204  
                       205  ;and return as a winner :)
7D82 A9FF              206          lda #$ff
7D84 A2FF              207          ldx #$ff
7D86 4CBB71            208          jmp PATCH_AT+$4004
                       209  
                       210  
7D89 4834434B          211          db "H","4","C","K"
7D8D 01                212          db 1 ;version of info block
7D8E 80                213          db CONF_XRES
7D8F 80                214          db CONF_YRES
7D90 18                215          db CONF_BPP
7D91 00                216          db CONF_PROTO
7D92 04                217          db OFFX
7D93 04                218          db OFFY
                       219  

ERRORS:       0
WARNINGS:     0

Successful assembly...
 Last address     7d93 (32147)
 Code length       1a8 (424)






Crasm LYB 1.3:                                                   page  5

^7D08   Abs BLOFF                                            
^7D00   Abs BLON                                             
 037C   Abs CMP_VAR1                                         
 037D   Abs CMP_VAR2                                         
 0018   Abs CONF_BPP                                         
 0000   Abs CONF_PROTO                                       
 0080   Abs CONF_XRES                                        
 0080   Abs CONF_YRES                                        
^7D39   Abs COPY2FB                                          
 0000   Abs CTRTYPE                                          
 3CC0   Abs EMPTY_AT                                         
?0371   Abs EN3                                              
^7CD7   Abs GOTCHA                                           
 036E   Abs LEN0                                             
 036F   Abs LEN1                                             
 0370   Abs LEN2                                             
^7CD0   Abs NOMAGIC                                          
^7D7A   Abs NOWAITPACKET                                     
 0004   Abs OFFX                                             
 0004   Abs OFFY                                             
^7D4F   Abs PACKETEND                                        
 31B7   Abs PATCH_AT                                         
 307F   Abs SEND_CSW                                         
^7D10   Abs SETADDR                                          
?7CC0   Abs START                                            
 7CE5   Abs WAITPACKET                                       






































