Crasm LYB 1.3:                                                   page  1

                         1  ;    Routines to allow direct USB-to-LCD-transfe
rs in an ST220x-device
                         2  ;    Copyright (C) 2008 Jeroen Domburg <jeroen@s
pritesmods.com>
                         3  ;
                         4  ;    This program is free software: you can redi
stribute it and/or modify
                         5  ;    it under the terms of the GNU General Publi
c License as published by
                         6  ;    the Free Software Foundation, either versio
n 3 of the License, or
                         7  ;    (at your option) any later version.
                         8  ;
                         9  ;    This program is distributed in the hope tha
t it will be useful,
                        10  ;    but WITHOUT ANY WARRANTY; without even the 
implied warranty of
                        11  ;    MERCHANTABILITY or FITNESS FOR A PARTICULAR
PURPOSE.  See the
                        12  ;    GNU General Public License for more details
.
                        13  ;
                        14  ;    You should have received a copy of the GNU 
General Public License
                        15  ;    along with this program.  If not, see <http
://www.gnu.org/licenses/>.
                        16  
                        17  
                        18      CPU 65c02
                        19      OUTPUT HEX
                        20      INCLUDE spec
  7C2C                  21      * = EMPTY_AT+$4000
                        22  
                        23  ;The routine in the existing firmware is patched
to jump here if the
                        24  ;routine that discerns the address that's writte
n to fails.
                        25  ;This way, we can splice our own check inthere t
oo.
                        26  
                        27  ;Watch out & be carefull with bloating this: one
of the devices (the Coby)
                        28  ;only has 230 bytes free to cram this in!
                        29  
                        30  ;check magic write to address 4400
7C2C AD8803             31  start   lda CMP_VAR1
7C2F C922               32          cmp #$22
7C31 D009               33          bne nomagic
7C33 AD8903             34          lda CMP_VAR2
7C36 C900               35          cmp #$00
7C38 D002               36          bne nomagic
7C3A 8007               37          bra gotcha
                        38  ;Nope? Do what the original routine did & bail o
ut.
7C3C A9FF               39  nomagic lda #$ff
7C3E A2FF               40          ldx #$ff
7C40 4C2070             41          jmp PATCH_AT+$4004
                        42  
                        43  ;ack usb wossname
7C43 A904               44  gotcha  lda #$04
7C45 8573               45          sta $73
                        46  


Crasm LYB 1.3:                                                   page  2

                        47  ;Push registers 
7C47 A535               48          lda $35
7C49 48                 49          pha
                        50  
                        51  ;select lcd
7C4A A903               52          lda #$3
7C4C 8535               53          sta $35
                        54  
7C4E 9C7A03             55          stz LEN0
                        56  ;wait for usb packet
7C51 A573               57  waitpacket lda $73
7C53 2904               58          and #$4
7C55 F0FA               59          beq waitpacket
                        60  
                        61  ;fetch command
7C57 AD0002             62          lda $200
7C5A C900               63          cmp #$0
7C5C F047               64          beq copy2fb
7C5E C901               65          cmp #$1
7C60 F01A               66          beq setaddr
7C62 C902               67          cmp #$2
7C64 F006               68          beq blon
7C66 C903               69          cmp #$3
7C68 F00A               70          beq bloff
7C6A 804F               71          bra packetend
                        72  
                        73  ;Command 2: turn backlight on
7C6C A503               74  blon    lda $03
>>>> 75 WARNING: External parenthesis ignored
7C6E 29FB               75          and #($ff-$04)
7C70 8503               76          sta $03
7C72 8047               77          bra packetend
                        78  
                        79  ;Command 3: turn backlight off
7C74 A503               80  bloff   lda $03
7C76 0904               81          ora #$04
7C78 8503               82          sta $03
7C7A 803F               83          bra packetend
                        84  
                        85  
                        86  ;Command 1: set window to write data to
                        87  IF CTRTYPE=1 ;UC1697V
                         C  ;set visible window
                         C  ;Non-working as of yet :/
                         C  setaddr lda #$F6 ;endx
                         C          sta $8000
                         C          lda $202
                         C          sta $8000
                         C  
                         C          lda #$F7 ;endy
                         C          sta $8000
                         C          lda $204
                         C          sta $8000
                         C  
                         C          lda #$F4 ;startx
                         C          sta $8000
                         C          lda $201
                         C          sta $8000
                         C  
                         C          lda #$F5 ;starty
                         C          sta $8000
                         C          lda $203


Crasm LYB 1.3:                                                   page  3

                         C          sta $8000
                         C  
                         C  ;reset addr to (0,0)
                         C  ;       lda #$00
                         C  ;       sta $8000
                         C  ;       lda #$10
                         C  ;       sta $8000
                         C  ;       lda #$60
                         C  ;       sta $8000
                         C  ;       lda #$70
                         C  ;       sta $8000
                         C  
                         C          bra packetend
                       121  ENDC
                       122  IF CTRTYPE==0 ;PCF8833
                       123  ;set addr
7C7C A92A              124  setaddr lda #$2A
7C7E 8D0080            125          sta $8000
7C81 AD0102            126          lda $201
7C84 8D00C0            127          sta $c000
7C87 AD0202            128          lda $202
7C8A 8D00C0            129          sta $c000
                       130  
7C8D A92B              131          lda #$2B
7C8F 8D0080            132          sta $8000
7C92 AD0302            133          lda $203
7C95 8D00C0            134          sta $c000
7C98 AD0402            135          lda $204
7C9B 8D00C0            136          sta $c000
                       137  
7C9E A92C              138          lda #$2c
7CA0 8D0080            139          sta $8000
                       140  
7CA3 8016              141          bra packetend
                       142  ENDC
                       143  
                       144  
                       145  ;Command 0: dma data to lcd.
                       146          ;set dma regs
                       147          ;copy from ($202)
7CA5 A902              148  copy2fb lda #$2
7CA7 8558              149          sta $58
7CA9 8559              150          sta $59
                       151          ;from bank (=0)
7CAB 645E              152          stz $5e
7CAD 645F              153          stz $5f
                       154          ;to (0xc0xx)
7CAF A9C0              155          lda #$C0
7CB1 855B              156          sta $5b
                       157  ;       stz $5a ;unnecessary
                       158          ;count
7CB3 645D              159          stz $5D
7CB5 AD0102            160          lda $201
                       161  ;       dea ;dma sends this +1 over; compensate
                       162          ;^^ stupid crasm doesn't recognize this 
:X
7CB8 3A                163          db $3a ;=hardcoded 'dea'
7CB9 855C              164          sta $5C
                       165  
                       166  
                       167  ;subtract 0x40 from 37A:37D.
                       168  ;Damn, this is way easier on an ARM :P


Crasm LYB 1.3:                                                   page  4

7CBB 38                169  packetend sec
7CBC AD7A03            170          lda LEN0
7CBF E940              171          sbc #$40
7CC1 8D7A03            172          sta LEN0
7CC4 AD7B03            173          lda LEN1
7CC7 E900              174          sbc #$0
7CC9 8D7B03            175          sta LEN1
7CCC AD7C03            176          lda LEN2
7CCF E900              177          sbc #$0
7CD1 8D7C03            178          sta LEN2
                       179  ;never gonna do such large xfers anyway
                       180  ;       lda LEN3
                       181  ;       sbc #$0
                       182  ;       sta LEN3
                       183  
                       184  ;ack
7CD4 A904              185          lda #$04
7CD6 8573              186          sta $73
                       187  
                       188  ;check for done-ness
                       189  ;       lda LEN3
7CD8 AD7C03            190          lda LEN2
7CDB 0D7B03            191          ora LEN1
7CDE 0D7A03            192          ora LEN0
7CE1 F003              193          beq nowaitpacket
7CE3 4C517C            194          jmp waitpacket
                       195  
                       196  ;restore registers
7CE6 68                197  nowaitpacket    pla
7CE7 8535              198          sta $35
                       199  
                       200  
                       201  ;send ack
7CE9 A900              202          lda #$00
7CEB 20E46E            203          jsr SEND_CSW+0x4000
                       204  
                       205  ;and return as a winner :)
7CEE A9FF              206          lda #$ff
7CF0 A2FF              207          ldx #$ff
7CF2 4C2070            208          jmp PATCH_AT+$4004
                       209  
                       210  
7CF5 4834434B          211          db "H","4","C","K"
7CF9 01                212          db 1 ;version of info block
7CFA 80                213          db CONF_XRES
7CFB 80                214          db CONF_YRES
7CFC 10                215          db CONF_BPP
7CFD 00                216          db CONF_PROTO
7CFE 04                217          db OFFX
7CFF 04                218          db OFFY
                       219  

ERRORS:       0
WARNINGS:     0

Successful assembly...
 Last address     7cff (31999)
 Code length       1a8 (424)






Crasm LYB 1.3:                                                   page  5

^7C74   Abs BLOFF                                            
^7C6C   Abs BLON                                             
 0388   Abs CMP_VAR1                                         
 0389   Abs CMP_VAR2                                         
 0010   Abs CONF_BPP                                         
 0000   Abs CONF_PROTO                                       
 0080   Abs CONF_XRES                                        
 0080   Abs CONF_YRES                                        
^7CA5   Abs COPY2FB                                          
 0000   Abs CTRTYPE                                          
 3C2C   Abs EMPTY_AT                                         
^7C43   Abs GOTCHA                                           
 037A   Abs LEN0                                             
 037B   Abs LEN1                                             
 037C   Abs LEN2                                             
?037D   Abs LEN3                                             
^7C3C   Abs NOMAGIC                                          
^7CE6   Abs NOWAITPACKET                                     
 0004   Abs OFFX                                             
 0004   Abs OFFY                                             
^7CBB   Abs PACKETEND                                        
 301C   Abs PATCH_AT                                         
 2EE4   Abs SEND_CSW                                         
^7C7C   Abs SETADDR                                          
?7C2C   Abs START                                            
 7C51   Abs WAITPACKET                                       






































