Crasm LYB 1.3:                                                   page  1

                         1  ;    Routines to allow direct USB-to-LCD-transfe
rs in an ST220x-device
                         2  ;    Copyright (C) 2008 Jeroen Domburg <jeroen@s
pritesmods.com>
                         3  ;
                         4  ;    This program is free software: you can redi
stribute it and/or modify
                         5  ;    it under the terms of the GNU General Publi
c License as published by
                         6  ;    the Free Software Foundation, either versio
n 3 of the License, or
                         7  ;    (at your option) any later version.
                         8  ;
                         9  ;    This program is distributed in the hope tha
t it will be useful,
                        10  ;    but WITHOUT ANY WARRANTY; without even the 
implied warranty of
                        11  ;    MERCHANTABILITY or FITNESS FOR A PARTICULAR
PURPOSE.  See the
                        12  ;    GNU General Public License for more details
.
                        13  ;
                        14  ;    You should have received a copy of the GNU 
General Public License
                        15  ;    along with this program.  If not, see <http
://www.gnu.org/licenses/>.
                        16  
                        17  
                        18      CPU 65c02
                        19      OUTPUT HEX
                        20      INCLUDE spec
  6D55                  21      * = EMPTY_AT+$4000
                        22  
                        23  ;The routine in the existing firmware is patched
to jump here if the
                        24  ;routine that discerns the address that's writte
n to fails.
                        25  ;This way, we can splice our own check inthere t
oo.
                        26  
                        27  ;Watch out & be carefull with bloating this: one
of the devices (the Coby)
                        28  ;only has 230 bytes free to cram this in!
                        29  
                        30  ;check magic write to address 4400
6D55 AD7A03             31  start   lda CMP_VAR1
6D58 C922               32          cmp #$22
6D5A D009               33          bne nomagic
6D5C AD7B03             34          lda CMP_VAR2
6D5F C900               35          cmp #$00
6D61 D002               36          bne nomagic
6D63 8007               37          bra gotcha
                        38  ;Nope? Do what the original routine did & bail o
ut.
6D65 A9FF               39  nomagic lda #$ff
6D67 A2FF               40          ldx #$ff
6D69 4CB46B             41          jmp PATCH_AT+$4004
                        42  
                        43  ;ack usb wossname
6D6C A904               44  gotcha  lda #$04
6D6E 8573               45          sta $73
                        46  


Crasm LYB 1.3:                                                   page  2

                        47  ;Push registers 
6D70 A535               48          lda $35
6D72 48                 49          pha
                        50  
                        51  ;select lcd
6D73 A903               52          lda #$3
6D75 8535               53          sta $35
                        54  
6D77 9C6C03             55          stz LEN0
                        56  ;wait for usb packet
6D7A A573               57  waitpacket lda $73
6D7C 2904               58          and #$4
6D7E F0FA               59          beq waitpacket
                        60  
                        61  ;fetch command
6D80 AD0002             62          lda $200
6D83 C900               63          cmp #$0
6D85 F047               64          beq copy2fb
6D87 C901               65          cmp #$1
6D89 F01A               66          beq setaddr
6D8B C902               67          cmp #$2
6D8D F006               68          beq blon
6D8F C903               69          cmp #$3
6D91 F00A               70          beq bloff
6D93 804F               71          bra packetend
                        72  
                        73  ;Command 2: turn backlight on
6D95 A503               74  blon    lda $03
>>>> 75 WARNING: External parenthesis ignored
6D97 29FB               75          and #($ff-$04)
6D99 8503               76          sta $03
6D9B 8047               77          bra packetend
                        78  
                        79  ;Command 3: turn backlight off
6D9D A503               80  bloff   lda $03
6D9F 0904               81          ora #$04
6DA1 8503               82          sta $03
6DA3 803F               83          bra packetend
                        84  
                        85  
                        86  ;Command 1: set window to write data to
                        87  IF CTRTYPE=1 ;UC1697V
                         C  ;set visible window
                         C  ;Non-working as of yet :/
                         C  setaddr lda #$F6 ;endx
                         C          sta $8000
                         C          lda $202
                         C          sta $8000
                         C  
                         C          lda #$F7 ;endy
                         C          sta $8000
                         C          lda $204
                         C          sta $8000
                         C  
                         C          lda #$F4 ;startx
                         C          sta $8000
                         C          lda $201
                         C          sta $8000
                         C  
                         C          lda #$F5 ;starty
                         C          sta $8000
                         C          lda $203


Crasm LYB 1.3:                                                   page  3

                         C          sta $8000
                         C  
                         C  ;reset addr to (0,0)
                         C  ;       lda #$00
                         C  ;       sta $8000
                         C  ;       lda #$10
                         C  ;       sta $8000
                         C  ;       lda #$60
                         C  ;       sta $8000
                         C  ;       lda #$70
                         C  ;       sta $8000
                         C  
                         C          bra packetend
                       121  ENDC
                       122  IF CTRTYPE==0 ;PCF8833
                       123  ;set addr
6DA5 A92A              124  setaddr lda #$2A
6DA7 8D0080            125          sta $8000
6DAA AD0102            126          lda $201
6DAD 8D00C0            127          sta $c000
6DB0 AD0202            128          lda $202
6DB3 8D00C0            129          sta $c000
                       130  
6DB6 A92B              131          lda #$2B
6DB8 8D0080            132          sta $8000
6DBB AD0302            133          lda $203
6DBE 8D00C0            134          sta $c000
6DC1 AD0402            135          lda $204
6DC4 8D00C0            136          sta $c000
                       137  
6DC7 A92C              138          lda #$2c
6DC9 8D0080            139          sta $8000
                       140  
6DCC 8016              141          bra packetend
                       142  ENDC
                       143  
                       144  
                       145  ;Command 0: dma data to lcd.
                       146          ;set dma regs
                       147          ;copy from ($202)
6DCE A902              148  copy2fb lda #$2
6DD0 8558              149          sta $58
6DD2 8559              150          sta $59
                       151          ;from bank (=0)
6DD4 645E              152          stz $5e
6DD6 645F              153          stz $5f
                       154          ;to (0xc0xx)
6DD8 A9C0              155          lda #$C0
6DDA 855B              156          sta $5b
                       157  ;       stz $5a ;unnecessary
                       158          ;count
6DDC 645D              159          stz $5D
6DDE AD0102            160          lda $201
                       161  ;       dea ;dma sends this +1 over; compensate
                       162          ;^^ stupid crasm doesn't recognize this 
:X
6DE1 3A                163          db $3a ;=hardcoded 'dea'
6DE2 855C              164          sta $5C
                       165  
                       166  
                       167  ;subtract 0x40 from 37A:37D.
                       168  ;Damn, this is way easier on an ARM :P


Crasm LYB 1.3:                                                   page  4

6DE4 38                169  packetend sec
6DE5 AD6C03            170          lda LEN0
6DE8 E940              171          sbc #$40
6DEA 8D6C03            172          sta LEN0
6DED AD6D03            173          lda LEN1
6DF0 E900              174          sbc #$0
6DF2 8D6D03            175          sta LEN1
6DF5 AD6E03            176          lda LEN2
6DF8 E900              177          sbc #$0
6DFA 8D6E03            178          sta LEN2
                       179  ;never gonna do such large xfers anyway
                       180  ;       lda LEN3
                       181  ;       sbc #$0
                       182  ;       sta LEN3
                       183  
                       184  ;ack
6DFD A904              185          lda #$04
6DFF 8573              186          sta $73
                       187  
                       188  ;check for done-ness
                       189  ;       lda LEN3
6E01 AD6E03            190          lda LEN2
6E04 0D6D03            191          ora LEN1
6E07 0D6C03            192          ora LEN0
6E0A F003              193          beq nowaitpacket
6E0C 4C7A6D            194          jmp waitpacket
                       195  
                       196  ;restore registers
6E0F 68                197  nowaitpacket    pla
6E10 8535              198          sta $35
                       199  
                       200  
                       201  ;send ack
6E12 A900              202          lda #$00
6E14 20786A            203          jsr SEND_CSW+0x4000
                       204  
                       205  ;and return as a winner :)
6E17 A9FF              206          lda #$ff
6E19 A2FF              207          ldx #$ff
6E1B 4CB46B            208          jmp PATCH_AT+$4004
                       209  
                       210  
6E1E 4834434B          211          db "H","4","C","K"
6E22 01                212          db 1 ;version of info block
6E23 80                213          db CONF_XRES
6E24 80                214          db CONF_YRES
6E25 18                215          db CONF_BPP
6E26 00                216          db CONF_PROTO
6E27 04                217          db OFFX
6E28 04                218          db OFFY
                       219  

ERRORS:       0
WARNINGS:     0

Successful assembly...
 Last address     6e28 (28200)
 Code length       1a8 (424)






Crasm LYB 1.3:                                                   page  5

^6D9D   Abs BLOFF                                            
^6D95   Abs BLON                                             
 037A   Abs CMP_VAR1                                         
 037B   Abs CMP_VAR2                                         
 0018   Abs CONF_BPP                                         
 0000   Abs CONF_PROTO                                       
 0080   Abs CONF_XRES                                        
 0080   Abs CONF_YRES                                        
^6DCE   Abs COPY2FB                                          
 0000   Abs CTRTYPE                                          
 2D55   Abs EMPTY_AT                                         
^6D6C   Abs GOTCHA                                           
 036C   Abs LEN0                                             
 036D   Abs LEN1                                             
 036E   Abs LEN2                                             
?036F   Abs LEN3                                             
^6D65   Abs NOMAGIC                                          
^6E0F   Abs NOWAITPACKET                                     
 0004   Abs OFFX                                             
 0004   Abs OFFY                                             
^6DE4   Abs PACKETEND                                        
 2BB0   Abs PATCH_AT                                         
 2A78   Abs SEND_CSW                                         
^6DA5   Abs SETADDR                                          
?6D55   Abs START                                            
 6D7A   Abs WAITPACKET                                       






































